EXPORTS
	_ZN10CEglDevice4NewLEv @ 1 NONAME
	_ZN10CEglDevice5NewLCEv @ 2 NONAME
	_ZN10CEglDevice9ConfigureEPKiS1_ @ 3 NONAME
	_ZN10CEglDevice9ConfigureEiii @ 4 NONAME
	_ZN10CEglDevice9ConfigureEiiiiiiiiii @ 5 NONAME
	_ZN10CEglDeviceD0Ev @ 6 NONAME
	_ZN10CEglDeviceD1Ev @ 7 NONAME
	_ZN10CEglDeviceD2Ev @ 8 NONAME
	_ZN11CEglSurfaceD0Ev @ 9 NONAME
	_ZN11CEglSurfaceD1Ev @ 10 NONAME
	_ZN11CEglSurfaceD2Ev @ 11 NONAME
	_ZN15CSGEApplication11SizeChangedEv @ 12 NONAME
	_ZN15CSGEApplication12CreateAppUiLEv @ 13 NONAME
	_ZN15CSGEApplication14CreateAppViewLE5TRect @ 14 NONAME
	_ZN15CSGEApplication14HandleCommandLEi @ 15 NONAME
	_ZN15CSGEApplication14HandleWsEventLERK8TWsEventP11CCoeControl @ 16 NONAME
	_ZN15CSGEApplication14NewApplicationEPS_ @ 17 NONAME
	_ZN15CSGEApplication15HandleKeyEventLERK9TKeyEvent10TEventCode @ 18 NONAME
	_ZN15CSGEApplication15PlaySystemSoundEi @ 19 NONAME
	_ZN15CSGEApplication15SetOrientationLEN13CAknAppUiBase17TAppUiOrientationE @ 20 NONAME
	_ZN15CSGEApplication19HandlePointerEventLERK13TPointerEvent @ 21 NONAME
	_ZN15CSGEApplication20HandleResourceChangeEi @ 22 NONAME
	_ZN15CSGEApplication22HandleForegroundEventLEi @ 23 NONAME
	_ZN15CSGEApplication25ProcessCommandParametersLE11TApaCommandR4TBufILi256EERK6TDesC8 @ 24 NONAME
	_ZN15CSGEApplication26HandleStatusPaneSizeChangeEv @ 25 NONAME
	_ZN15CSGEApplication4ExitEv @ 26 NONAME
	_ZN15CSGEApplication5StartEPFP15CApaApplicationvE @ 27 NONAME
	_ZN15CSGEApplication8AlertWinERK7TDesC16S2_ @ 28 NONAME
	_ZN15CSGEApplicationC1Ev @ 29 NONAME
	_ZN15CSGEApplicationC2Ev @ 30 NONAME
	_ZN15CSGEApplicationD0Ev @ 31 NONAME
	_ZN15CSGEApplicationD1Ev @ 32 NONAME
	_ZN15CSGEApplicationD2Ev @ 33 NONAME
	_ZN17CEglSurfacePixmap4NewLERK10CEglDeviceP9CWsBitmap @ 34 NONAME
	_ZN17CEglSurfacePixmap5NewLCERK10CEglDeviceP9CWsBitmap @ 35 NONAME
	_ZN17CEglSurfacePixmapD0Ev @ 36 NONAME
	_ZN17CEglSurfacePixmapD1Ev @ 37 NONAME
	_ZN17CEglSurfacePixmapD2Ev @ 38 NONAME
	_ZN17CEglSurfaceWindow11SwapBuffersEv @ 39 NONAME
	_ZN17CEglSurfaceWindow4NewLERK10CEglDeviceR7RWindow @ 40 NONAME
	_ZN17CEglSurfaceWindow5NewLCERK10CEglDeviceR7RWindow @ 41 NONAME
	_ZN17CEglSurfaceWindowD0Ev @ 42 NONAME
	_ZN17CEglSurfaceWindowD1Ev @ 43 NONAME
	_ZN17CEglSurfaceWindowD2Ev @ 44 NONAME
	_ZN18CEglSurfacePbuffer11CopyBuffersEP9CWsBitmap @ 45 NONAME
	_ZN18CEglSurfacePbuffer13BindToTextureEv @ 46 NONAME
	_ZN18CEglSurfacePbuffer18ReleaseFromTextureEv @ 47 NONAME
	_ZN18CEglSurfacePbuffer4NewLERK10CEglDevice5TSizeiiii @ 48 NONAME ABSENT
	_ZN18CEglSurfacePbuffer5NewLCERK10CEglDevice5TSizeiiii @ 49 NONAME ABSENT
	_ZN18CEglSurfacePbufferD0Ev @ 50 NONAME
	_ZN18CEglSurfacePbufferD1Ev @ 51 NONAME
	_ZN18CEglSurfacePbufferD2Ev @ 52 NONAME
	_ZN19CSGEGameApplication12CreateAppUiLEv @ 53 NONAME
	_ZN19CSGEGameApplication12StopGameLoopEv @ 54 NONAME
	_ZN19CSGEGameApplication13GameLoopEventEv @ 55 NONAME
	_ZN19CSGEGameApplication13StartGameLoopEv @ 56 NONAME
	_ZN19CSGEGameApplication15GameLoopStartedEv @ 57 NONAME
	_ZN19CSGEGameApplication17SetGameLoopMaxFPSEj @ 58 NONAME
	_ZN19CSGEGameApplication22HandleForegroundEventLEi @ 59 NONAME
	_ZN19CSGEGameApplication5InitLEv @ 60 NONAME
	_ZN19CSGEGameApplicationC1Ev @ 61 NONAME
	_ZN19CSGEGameApplicationC2Ev @ 62 NONAME
	_ZN19CSGEGameApplicationD0Ev @ 63 NONAME
	_ZN19CSGEGameApplicationD1Ev @ 64 NONAME
	_ZN19CSGEGameApplicationD2Ev @ 65 NONAME
	_ZN21CSGEGameApplicationDS13GameLoopEventEv @ 66 NONAME
	_ZN21CSGEGameApplicationDS14CreateAppViewLE5TRect @ 67 NONAME
	_ZN21CSGEGameApplicationGL11SurfaceTypeEv @ 68 NONAME
	_ZN21CSGEGameApplicationGL13GameLoopEventEv @ 69 NONAME
	_ZN21CSGEGameApplicationGL14CreateAppViewLE5TRect @ 70 NONAME
	_ZN21CSGEGameApplicationGL27MakeCurrentWindowEglContextEv @ 71 NONAME
	_ZN21CSGEGameApplicationGL8WsBitmapEv @ 72 NONAME
	_ZN22CSGEGameApplicationDSB14CreateAppViewLE5TRect @ 73 NONAME
	_ZN6CEglRc11MakeCurrentER11CEglSurface @ 74 NONAME
	_ZN6CEglRc11MakeCurrentER11CEglSurfaceS1_ @ 75 NONAME
	_ZN6CEglRc4NewLERK10CEglDevice @ 76 NONAME
	_ZN6CEglRc5NewLCERK10CEglDevice @ 77 NONAME
	_ZN6CEglRcD0Ev @ 78 NONAME
	_ZN6CEglRcD1Ev @ 79 NONAME
	_ZN6CEglRcD2Ev @ 80 NONAME
	_ZNK10CEglDevice6ConfigEv @ 81 NONAME
	_ZNK10CEglDevice7DisplayEv @ 82 NONAME
	_ZNK11CEglSurface7SurfaceEv @ 83 NONAME
	_ZNK15CSGEApplication10FullScreenEv @ 84 NONAME
	_ZNK15CSGEApplication10SilentKeysEv @ 85 NONAME
	_ZNK15CSGEApplication16ApplicationFlagsEv @ 86 NONAME
	_ZNK15CSGEApplication4DrawERK5TRect @ 87 NONAME
	_ZNK15CSGEApplication4RectEv @ 88 NONAME
	_ZNK15CSGEApplication6WindowEv @ 89 NONAME
	_ZNK15CSGEApplication7DrawNowEv @ 90 NONAME
	_ZNK15CSGEApplication8SystemGcEv @ 91 NONAME
	_ZNK15CSGEApplication9FsSessionEv @ 92 NONAME
	_ZNK15CSGEApplication9WsSessionEv @ 93 NONAME
	_ZNK19CSGEGameApplication14GameLoopMaxFPSEv @ 94 NONAME
	_ZNK19CSGEGameApplication20GoBackgroundOnEndKeyEv @ 95 NONAME
	_ZNK19CSGEGameApplication9BlockKeysEv @ 96 NONAME
	_ZNK21CSGEGameApplicationDS11DisplayModeEv @ 97 NONAME
	_ZNK21CSGEGameApplicationDS2GcEv @ 98 NONAME
	_ZNK21CSGEGameApplicationDS4SizeEv @ 99 NONAME
	_ZNK21CSGEGameApplicationGL10EglSurfaceEv @ 100 NONAME
	_ZNK21CSGEGameApplicationGL19EglRenderingContextEv @ 101 NONAME
	_ZNK21CSGEGameApplicationGL4SizeEv @ 102 NONAME
	_ZNK21CSGEGameApplicationGL9EglDeviceEv @ 103 NONAME
	_ZTI15CSGEApplication @ 104 NONAME
	_ZTI19CSGEGameApplication @ 105 NONAME
	_ZTI21CSGEGameApplicationDS @ 106 NONAME
	_ZTI21CSGEGameApplicationGL @ 107 NONAME
	_ZTI22CSGEGameApplicationDSB @ 108 NONAME
	_ZTV15CSGEApplication @ 109 NONAME
	_ZTV19CSGEGameApplication @ 110 NONAME
	_ZTV21CSGEGameApplicationDS @ 111 NONAME
	_ZTV21CSGEGameApplicationGL @ 112 NONAME
	_ZTV22CSGEGameApplicationDSB @ 113 NONAME
	_ZNK19CSGEGameApplication11GameLoopFPSEv @ 114 NONAME
	_ZNK15CSGEApplication11OrientationEv @ 115 NONAME
	_ZN18CEglSurfacePbuffer11MakeCurrentEv @ 116 NONAME
	_ZNK18CEglSurfacePbuffer4SizeEv @ 117 NONAME
	_ZN18CEglSurfacePbuffer4NewLERK10CEglDevice5TSizeiiiii @ 118 NONAME
	_ZN18CEglSurfacePbuffer5NewLCERK10CEglDevice5TSizeiiiii @ 119 NONAME
	_ZNK6CEglRc2RCEv @ 120 NONAME

