EXPORTS
	_ZN14CSGEFileHeader4NewLEPS_ @ 1 NONAME
	_ZN14CSGEFileHeader4NewLEv @ 2 NONAME
	_ZN14CSGEFileHeader5NewLCEv @ 3 NONAME
	_ZN16CSGEFileProvider11AddSGEFileLEP8CSGEFilej @ 4 NONAME
	_ZN16CSGEFileProvider11AddSGEFileLERK7TDesC16j @ 5 NONAME
	_ZN16CSGEFileProvider11GetSGEFileLEj @ 6 NONAME
	_ZN16CSGEFileProvider13RemoveSGEFileEj @ 7 NONAME
	_ZN16CSGEFileProvider16RemoveSGEFileAllEv @ 8 NONAME
	_ZN16CSGEFileProvider4NewLEv @ 9 NONAME
	_ZN16CSGEFileProvider5NewLCEv @ 10 NONAME
	_ZN16CSGEFileProviderD0Ev @ 11 NONAME
	_ZN16CSGEFileProviderD1Ev @ 12 NONAME
	_ZN16CSGEFileProviderD2Ev @ 13 NONAME
	_ZN8CSGEFile10FileExistsERK7TDesC16 @ 14 NONAME
	_ZN8CSGEFile11ExtractDirLERK7TDesC16S2_ @ 15 NONAME
	_ZN8CSGEFile12ExtractFileLERK7TDesC16S2_ @ 16 NONAME
	_ZN8CSGEFile12ExtractTreeLERK7TDesC16S2_ @ 17 NONAME
	_ZN8CSGEFile15ExtractAllTreeLERK7TDesC16 @ 18 NONAME
	_ZN8CSGEFile16OpenDefaultFileLEPi @ 19 NONAME
	_ZN8CSGEFile4DirLERK7TDesC16 @ 20 NONAME
	_ZN8CSGEFile4NewLEv @ 21 NONAME
	_ZN8CSGEFile5LoadLERK7TDesC16 @ 22 NONAME
	_ZN8CSGEFile5NewLCEv @ 23 NONAME
	_ZN8CSGEFile7CreateLERK7TDesC16S2_P14CSGEFileHeader @ 24 NONAME
	_ZN8CSGEFile8DirTreeLERK7TDesC16 @ 25 NONAME
	_ZN8CSGEFile9GetHeaderEv @ 26 NONAME
	_ZN8CSGEFile9OpenFileLERK7TDesC16Pi @ 27 NONAME
	_ZN16CSGEFileProvider13PrivateFolderER6TDes16 @ 28 NONAME
	_ZN16CSGEFileProvider21AppendToPrivateFolderERK7TDesC16 @ 29 NONAME
	_ZN16CSGEFileProvider2FsEv @ 30 NONAME
	_ZN8CSGEFile4NewLER3RFs @ 31 NONAME
	_ZN8CSGEFile5NewLCER3RFs @ 32 NONAME
	_ZN8CSGEFileD0Ev @ 33 NONAME
	_ZN8CSGEFileD1Ev @ 34 NONAME
	_ZN8CSGEFileD2Ev @ 35 NONAME
	_ZNK16CSGEFileProvider12InstallDriveEv @ 36 NONAME

