EXPORTS
	??1CSGEFile@@UAE@XZ @ 1 NONAME ; CSGEFile::~CSGEFile(void)
	??1CSGEFileProvider@@UAE@XZ @ 2 NONAME ; CSGEFileProvider::~CSGEFileProvider(void)
	?AddSGEFileL@CSGEFileProvider@@QAEXABVTDesC16@@I@Z @ 3 NONAME ; void CSGEFileProvider::AddSGEFileL(class TDesC16 const &, unsigned int)
	?AddSGEFileL@CSGEFileProvider@@QAEXPAVCSGEFile@@I@Z @ 4 NONAME ; void CSGEFileProvider::AddSGEFileL(class CSGEFile *, unsigned int)
	?CreateL@CSGEFile@@SAXABVTDesC16@@0PAVCSGEFileHeader@@@Z @ 5 NONAME ; void CSGEFile::CreateL(class TDesC16 const &, class TDesC16 const &, class CSGEFileHeader *)
	?DirL@CSGEFile@@QAE?AV?$RArray@VTEntry@@@@ABVTDesC16@@@Z @ 6 NONAME ; class RArray<class TEntry> CSGEFile::DirL(class TDesC16 const &)
	?DirTreeL@CSGEFile@@QAE?AV?$RArray@VTEntry@@@@ABVTDesC16@@@Z @ 7 NONAME ; class RArray<class TEntry> CSGEFile::DirTreeL(class TDesC16 const &)
	?ExtractAllTreeL@CSGEFile@@QAEXABVTDesC16@@@Z @ 8 NONAME ; void CSGEFile::ExtractAllTreeL(class TDesC16 const &)
	?ExtractDirL@CSGEFile@@QAEXABVTDesC16@@0@Z @ 9 NONAME ; void CSGEFile::ExtractDirL(class TDesC16 const &, class TDesC16 const &)
	?ExtractFileL@CSGEFile@@QAEXABVTDesC16@@0@Z @ 10 NONAME ; void CSGEFile::ExtractFileL(class TDesC16 const &, class TDesC16 const &)
	?ExtractTreeL@CSGEFile@@QAEXABVTDesC16@@0@Z @ 11 NONAME ; void CSGEFile::ExtractTreeL(class TDesC16 const &, class TDesC16 const &)
	?FileExists@CSGEFile@@QAEHABVTDesC16@@@Z @ 12 NONAME ; int CSGEFile::FileExists(class TDesC16 const &)
	?GetHeader@CSGEFile@@QAEPBVCSGEFileHeader@@XZ @ 13 NONAME ; class CSGEFileHeader const * CSGEFile::GetHeader(void)
	?GetSGEFileL@CSGEFileProvider@@QAEAAVCSGEFile@@I@Z @ 14 NONAME ; class CSGEFile & CSGEFileProvider::GetSGEFileL(unsigned int)
	?InstallDrive@CSGEFileProvider@@QBE?AVTChar@@XZ @ 15 NONAME ; class TChar CSGEFileProvider::InstallDrive(void) const
	?LoadL@CSGEFile@@QAEXABVTDesC16@@@Z @ 16 NONAME ; void CSGEFile::LoadL(class TDesC16 const &)
	?NewL@CSGEFile@@SAPAV1@XZ @ 17 NONAME ; class CSGEFile * CSGEFile::NewL(void)
	?NewL@CSGEFileHeader@@SAPAV1@PAV1@@Z @ 18 NONAME ; class CSGEFileHeader * CSGEFileHeader::NewL(class CSGEFileHeader *)
	?NewL@CSGEFileHeader@@SAPAV1@XZ @ 19 NONAME ; class CSGEFileHeader * CSGEFileHeader::NewL(void)
	?NewL@CSGEFileProvider@@SAPAV1@XZ @ 20 NONAME ; class CSGEFileProvider * CSGEFileProvider::NewL(void)
	?NewLC@CSGEFile@@SAPAV1@XZ @ 21 NONAME ; class CSGEFile * CSGEFile::NewLC(void)
	?NewLC@CSGEFileHeader@@SAPAV1@XZ @ 22 NONAME ; class CSGEFileHeader * CSGEFileHeader::NewLC(void)
	?AppendToPrivateFolder@CSGEFileProvider@@QAEAAV?$TBuf@$0BAA@@@ABVTDesC16@@@Z @ 23 NONAME ; class TBuf<256> & CSGEFileProvider::AppendToPrivateFolder(class TDesC16 const &)
	?Fs@CSGEFileProvider@@QAEAAVRFs@@XZ @ 24 NONAME ; class RFs & CSGEFileProvider::Fs(void)
	?NewL@CSGEFile@@SAPAV1@AAVRFs@@@Z @ 25 NONAME ; class CSGEFile * CSGEFile::NewL(class RFs &)
	?NewLC@CSGEFile@@SAPAV1@AAVRFs@@@Z @ 26 NONAME ; class CSGEFile * CSGEFile::NewLC(class RFs &)
	?NewLC@CSGEFileProvider@@SAPAV1@XZ @ 27 NONAME ; class CSGEFileProvider * CSGEFileProvider::NewLC(void)
	?OpenDefaultFileL@CSGEFile@@QAE?AVRReadStream@@PAH@Z @ 28 NONAME ; class RReadStream CSGEFile::OpenDefaultFileL(int *)
	?OpenFileL@CSGEFile@@QAE?AVRReadStream@@ABVTDesC16@@PAH@Z @ 29 NONAME ; class RReadStream CSGEFile::OpenFileL(class TDesC16 const &, int *)
	?PrivateFolder@CSGEFileProvider@@QAEXAAVTDes16@@@Z @ 30 NONAME ; void CSGEFileProvider::PrivateFolder(class TDes16 &)
	?RemoveSGEFile@CSGEFileProvider@@QAEXI@Z @ 31 NONAME ; void CSGEFileProvider::RemoveSGEFile(unsigned int)
	?RemoveSGEFileAll@CSGEFileProvider@@QAEXXZ @ 32 NONAME ; void CSGEFileProvider::RemoveSGEFileAll(void)

