EXPORTS
	_ZN11CSGEFontGDR4NewLER8CSGEFileRK7TDesC16S4_ @ 1 NONAME
	_ZN11CSGEFontGDR4NewLERK7TDesC16S2_ @ 2 NONAME
	_ZN11CSGEFontGDRD0Ev @ 3 NONAME
	_ZN11CSGEFontGDRD1Ev @ 4 NONAME
	_ZN11CSGEFontGDRD2Ev @ 5 NONAME
	_ZN14CSGEFontFamily10RemoveFontEj @ 6 NONAME
	_ZN14CSGEFontSystem4NewLENS_22TSGEFontSystemStandardE @ 7 NONAME
	_ZN14CSGEFontSystem4NewLERK12TLogicalFont @ 8 NONAME
	_ZN14CSGEFontSystem4NewLERK7TDesC16i10TFontStyle @ 9 NONAME
	_ZN14CSGEFontSystem4NewLERK7TDesC16iii @ 10 NONAME
	_ZN14CSGEFontSystemD0Ev @ 11 NONAME
	_ZN14CSGEFontSystemD1Ev @ 12 NONAME
	_ZN14CSGEFontSystemD2Ev @ 13 NONAME
	_ZN15CSGEFontGraphic10DuplicateLER14CSGEBitmapItem @ 14 NONAME
	_ZN15CSGEFontGraphic10DuplicateLEv @ 15 NONAME
	_ZN15CSGEFontGraphic13LetterMarginsE5TChar @ 16 NONAME
	_ZN15CSGEFontGraphic13SetInvertMaskEi @ 17 NONAME
	_ZN15CSGEFontGraphic15AddCharacterMapE5TCharS0_ @ 18 NONAME
	_ZN15CSGEFontGraphic15TransformCurvesEPFvRhS0_S0_E @ 19 NONAME
	_ZN15CSGEFontGraphic21SetUseLettersAnalyzerEi @ 20 NONAME
	_ZN15CSGEFontGraphic4NewLER14CSGEBitmapItem5TSize5TChari @ 21 NONAME
	_ZN15CSGEFontGraphic4NewLER8CSGEFileRK7TDesC165TSize5TChari @ 22 NONAME
	_ZN15CSGEFontGraphic4NewLERK7TDesC165TSize5TChari @ 23 NONAME
	_ZN15CSGEFontGraphic8DrawTextER14CBitmapContext5TRectRK7TDesC16S2_23TSGEFontAlignHorizontal21TSGEFontAlignVertical @ 24 NONAME
	_ZN15CSGEFontGraphic8DrawTextER14CBitmapContext6TPointRK7TDesC165TRect @ 25 NONAME
	_ZN15CSGEFontGraphicD0Ev @ 26 NONAME
	_ZN15CSGEFontGraphicD1Ev @ 27 NONAME
	_ZN15CSGEFontGraphicD2Ev @ 28 NONAME
	_ZN16CSGEFontProvider16RemoveFontFamilyEj @ 29 NONAME
	_ZN16CSGEFontProvider19RemoveFontFamilyAllEv @ 30 NONAME
	_ZN16CSGEFontProvider4NewLEv @ 31 NONAME
	_ZN16CSGEFontProvider5NewLCEv @ 32 NONAME
	_ZN16CSGEFontProvider8AddFontLEP8CSGEFontjj @ 33 NONAME
	_ZN16CSGEFontProvider9AddFontLDEP8CSGEFontjj @ 34 NONAME
	_ZN16CSGEFontProviderD0Ev @ 35 NONAME
	_ZN16CSGEFontProviderD1Ev @ 36 NONAME
	_ZN16CSGEFontProviderD2Ev @ 37 NONAME
	_ZN8CSGEFont14SetDivideLinesEi @ 38 NONAME
	_ZN8CSGEFont22SetLettersVerticalStepEi @ 39 NONAME
	_ZN8CSGEFont24SetLettersHorizontalStepEi @ 40 NONAME
	_ZN8CSGEFont8DrawTextER14CBitmapContext5TRectRK7TDesC16S2_23TSGEFontAlignHorizontal21TSGEFontAlignVertical @ 41 NONAME
	_ZN8CSGEFont8DrawTextER14CBitmapContext6TPointRK7TDesC165TRect @ 42 NONAME
	_ZN8CSGEFontD0Ev @ 43 NONAME
	_ZN8CSGEFontD1Ev @ 44 NONAME
	_ZN8CSGEFontD2Ev @ 45 NONAME
	_ZNK11CSGEFontGDR4FontEv @ 46 NONAME
	_ZNK14CSGEFontFamily7GetFontEj @ 47 NONAME
	_ZNK14CSGEFontSystem4FontEv @ 48 NONAME
	_ZNK16CSGEFontProvider13GetFontFamilyEj @ 49 NONAME
	_ZNK16CSGEFontProvider7GetFontEjj @ 50 NONAME
	_ZN8CSGEFont14BaseConstructLEv @ 51 NONAME
	_ZN8CSGEFontC1Ev @ 52 NONAME
	_ZN8CSGEFontC2Ev @ 53 NONAME
	_ZTI8CSGEFont @ 54 NONAME
	_ZTV8CSGEFont @ 55 NONAME

