EXPORTS
	_ZN15CSGESensorShake4NewLER23MSGESensorShakeObserveri @ 1 NONAME
	_ZN15CSGESensorShake5NewLCER23MSGESensorShakeObserveri @ 2 NONAME
	_ZN15CSGESensorShakeD0Ev @ 3 NONAME
	_ZN15CSGESensorShakeD1Ev @ 4 NONAME
	_ZN15CSGESensorShakeD2Ev @ 5 NONAME
	_ZN18CSGESensorRotation16SetLowPassFilterEiii @ 6 NONAME
	_ZN18CSGESensorRotation4NewLEi @ 7 NONAME
	_ZN18CSGESensorRotation5NewLCEi @ 8 NONAME
	_ZN18CSGESensorRotationD0Ev @ 9 NONAME
	_ZN18CSGESensorRotationD1Ev @ 10 NONAME
	_ZN18CSGESensorRotationD2Ev @ 11 NONAME
	_ZN21CSGESensorOrientation4NewLEv @ 12 NONAME
	_ZN21CSGESensorOrientation5NewLCEv @ 13 NONAME
	_ZN21CSGESensorOrientationD0Ev @ 14 NONAME
	_ZN21CSGESensorOrientationD1Ev @ 15 NONAME
	_ZN21CSGESensorOrientationD2Ev @ 16 NONAME
	_ZN23CSGESensorAccelerometer16SetLowPassFilterEiii @ 17 NONAME
	_ZN23CSGESensorAccelerometer4NewLEi @ 18 NONAME
	_ZN23CSGESensorAccelerometer5NewLCEi @ 19 NONAME
	_ZN23CSGESensorAccelerometerD0Ev @ 20 NONAME
	_ZN23CSGESensorAccelerometerD1Ev @ 21 NONAME
	_ZN23CSGESensorAccelerometerD2Ev @ 22 NONAME
	_ZNK18CSGESensorRotation5AxisXEv @ 23 NONAME
	_ZNK18CSGESensorRotation5AxisYEv @ 24 NONAME
	_ZNK18CSGESensorRotation5AxisZEv @ 25 NONAME
	_ZNK21CSGESensorOrientation11OrientationEv @ 26 NONAME
	_ZNK23CSGESensorAccelerometer5AxisXEv @ 27 NONAME
	_ZNK23CSGESensorAccelerometer5AxisYEv @ 28 NONAME
	_ZNK23CSGESensorAccelerometer5AxisZEv @ 29 NONAME
	_ZTI15CSGESensorShake @ 30 NONAME
	_ZTI18CSGESensorRotation @ 31 NONAME
	_ZTI21CSGESensorOrientation @ 32 NONAME
	_ZTI23CSGESensorAccelerometer @ 33 NONAME
	_ZTV15CSGESensorShake @ 34 NONAME
	_ZTV18CSGESensorRotation @ 35 NONAME
	_ZTV21CSGESensorOrientation @ 36 NONAME
	_ZTV23CSGESensorAccelerometer @ 37 NONAME

