EXPORTS
	_ZTI10TGlTexture @ 1 NONAME
	_ZTI11TGlMaterial @ 2 NONAME
	_ZTI11TGlPolygonF @ 3 NONAME
	_ZTI11TGlPolygonX @ 4 NONAME
	_ZTI12CGlPrimitive @ 5 NONAME
	_ZTI12TGlMaterialF @ 6 NONAME
	_ZTI12TGlMaterialX @ 7 NONAME
	_ZTI13CGlObjectCube @ 8 NONAME
	_ZTI13CGlObjectRect @ 9 NONAME
	_ZTI13CGlRttPbuffer @ 10 NONAME
	_ZTI13CGlTextureSet @ 11 NONAME
	_ZTI14CGlVertexArray @ 12 NONAME
	_ZTI14TGlTransScaleF @ 13 NONAME
	_ZTI14TGlTransScaleX @ 14 NONAME
	_ZTI15CGlVertexBuffer @ 15 NONAME
	_ZTI15TGlTextureAtlas @ 16 NONAME
	_ZTI16TGlTransIdentity @ 17 NONAME
	_ZTI17CGlTextureManager @ 18 NONAME
	_ZTI17TGlTransRotationF @ 19 NONAME
	_ZTI17TGlTransRotationX @ 20 NONAME
	_ZTI17TGlTransformation @ 21 NONAME
	_ZTI18CGlMaterialManager @ 22 NONAME
	_ZTI20TGlTransTranslationF @ 23 NONAME
	_ZTI20TGlTransTranslationX @ 24 NONAME
	_ZTI7CGlFont @ 25 NONAME
	_ZTI8TGlLineF @ 26 NONAME
	_ZTI8TGlLineX @ 27 NONAME
	_ZTI9CGlObject @ 28 NONAME
	_ZTI9TGlPointF @ 29 NONAME
	_ZTI9TGlPointX @ 30 NONAME
	_ZTV10TGlTexture @ 31 NONAME
	_ZTV11TGlMaterial @ 32 NONAME
	_ZTV11TGlPolygonF @ 33 NONAME
	_ZTV11TGlPolygonX @ 34 NONAME
	_ZTV12CGlPrimitive @ 35 NONAME
	_ZTV12TGlMaterialF @ 36 NONAME
	_ZTV12TGlMaterialX @ 37 NONAME
	_ZTV13CGlObjectCube @ 38 NONAME
	_ZTV13CGlObjectRect @ 39 NONAME
	_ZTV13CGlRttPbuffer @ 40 NONAME
	_ZTV13CGlTextureSet @ 41 NONAME
	_ZTV14CGlVertexArray @ 42 NONAME
	_ZTV14TGlTransScaleF @ 43 NONAME
	_ZTV14TGlTransScaleX @ 44 NONAME
	_ZTV15CGlVertexBuffer @ 45 NONAME
	_ZTV15TGlTextureAtlas @ 46 NONAME
	_ZTV16TGlTransIdentity @ 47 NONAME
	_ZTV17CGlTextureManager @ 48 NONAME
	_ZTV17TGlTransRotationF @ 49 NONAME
	_ZTV17TGlTransRotationX @ 50 NONAME
	_ZTV17TGlTransformation @ 51 NONAME
	_ZTV18CGlMaterialManager @ 52 NONAME
	_ZTV20TGlTransTranslationF @ 53 NONAME
	_ZTV20TGlTransTranslationX @ 54 NONAME
	_ZTV7CGlFont @ 55 NONAME
	_ZTV8TGlLineF @ 56 NONAME
	_ZTV8TGlLineX @ 57 NONAME
	_ZTV9CGlObject @ 58 NONAME
	_ZTV9TGlPointF @ 59 NONAME
	_ZTV9TGlPointX @ 60 NONAME

