EXPORTS
	_ZN14CSGEBitmapItem15TransformCurvesEPFvRhS0_S0_E @ 1 NONAME
	_ZN14CSGEBitmapItem19TransformCurvesMaskEPFvRhS0_S0_E @ 2 NONAME
	_ZN14CSGEBitmapItem4NewLEj5TSize12TDisplayModeS1_ @ 3 NONAME
	_ZN14CSGEBitmapItem5NewLCEj5TSize12TDisplayModeS1_ @ 4 NONAME
	_ZN14CSGEBitmapItemC1EP10CFbsBitmapS1_j @ 5 NONAME
	_ZN14CSGEBitmapItemC2EP10CFbsBitmapS1_j @ 6 NONAME
	_ZN14CSGEBitmapItemD0Ev @ 7 NONAME
	_ZN14CSGEBitmapItemD1Ev @ 8 NONAME
	_ZN14CSGEBitmapItemD2Ev @ 9 NONAME
	_ZN14SGEBitmapUtils15TransformCurvesEPFvRhS0_S0_ER10CFbsBitmap @ 10 NONAME
	_ZN14SGEBitmapUtils19DuplicateFbsBitmapLERK10CFbsBitmap @ 11 NONAME
	_ZN14SGEBitmapUtils20TransformCurvesParamEPFvRhS0_S0_PvER10CFbsBitmapS1_ @ 12 NONAME
	_ZN18CSGEBitmapProvider10BitmapItemEj @ 13 NONAME
	_ZN18CSGEBitmapProvider11SetObserverEP26MSGEBitmapProviderObserver @ 14 NONAME
	_ZN18CSGEBitmapProvider12InternalizeLER11RReadStream @ 15 NONAME
	_ZN18CSGEBitmapProvider14AddBitmapItemLEP14CSGEBitmapItem @ 16 NONAME
	_ZN18CSGEBitmapProvider15AddImageToLoadLEP21CSGEBitmapItemCreator @ 17 NONAME
	_ZN18CSGEBitmapProvider15AddImageToLoadLER8CSGEFileRK7TDesC16j @ 18 NONAME
	_ZN18CSGEBitmapProvider15AddImageToLoadLERK7TDesC16j @ 19 NONAME
	_ZN18CSGEBitmapProvider15RemoveBitmapSetEj @ 20 NONAME
	_ZN18CSGEBitmapProvider15SelectBitmapSetEj @ 21 NONAME
	_ZN18CSGEBitmapProvider16CreateBitmapSetLEj @ 22 NONAME
	_ZN18CSGEBitmapProvider16RemoveBitmapItemEj @ 23 NONAME
	_ZN18CSGEBitmapProvider18RemoveBitmapSetAllEv @ 24 NONAME
	_ZN18CSGEBitmapProvider19RemoveBitmapItemAllEv @ 25 NONAME
	_ZN18CSGEBitmapProvider19StartLoadingImagesLEv @ 26 NONAME
	_ZN18CSGEBitmapProvider4NewLEP26MSGEBitmapProviderObserver @ 27 NONAME
	_ZN18CSGEBitmapProvider5NewLCEP26MSGEBitmapProviderObserver @ 28 NONAME
	_ZN18CSGEBitmapProvider6BitBltER14CBitmapContext6TPoint5TRectji @ 29 NONAME
	_ZN18CSGEBitmapProvider6BitBltER14CBitmapContext6TPointj @ 30 NONAME
	_ZN18CSGEBitmapProviderD0Ev @ 31 NONAME
	_ZN18CSGEBitmapProviderD1Ev @ 32 NONAME
	_ZN18CSGEBitmapProviderD2Ev @ 33 NONAME
	_ZN21CSGEBitmapItemCreator15AddChildActionLEP26CSGEBitmapItemCreatorChild @ 34 NONAME
	_ZN21CSGEBitmapItemCreatorC1ER8CSGEFileRK7TDesC16j @ 35 NONAME
	_ZN21CSGEBitmapItemCreatorC1ERK7TDesC16j @ 36 NONAME
	_ZN21CSGEBitmapItemCreatorC2ER8CSGEFileRK7TDesC16j @ 37 NONAME
	_ZN21CSGEBitmapItemCreatorC2ERK7TDesC16j @ 38 NONAME
	_ZN21CSGEBitmapItemCreatorD0Ev @ 39 NONAME
	_ZN21CSGEBitmapItemCreatorD1Ev @ 40 NONAME
	_ZN21CSGEBitmapItemCreatorD2Ev @ 41 NONAME
	_ZN21CSGEBitmapTransparent16CopyBitmapToMaskEv @ 42 NONAME
	_ZN21CSGEBitmapTransparent23TransformToBitmapItemLDEj @ 43 NONAME
	_ZN21CSGEBitmapTransparent4NewLE5TSize4TRgbh @ 44 NONAME
	_ZN21CSGEBitmapTransparent5NewLCE5TSize4TRgbh @ 45 NONAME
	_ZN21CSGEBitmapTransparent6BitBltEP14CBitmapContext5TRect @ 46 NONAME
	_ZN21CSGEBitmapTransparent6BitBltEP14CBitmapContext6TPoint5TRecti @ 47 NONAME
	_ZN21CSGEBitmapTransparentD0Ev @ 48 NONAME
	_ZN21CSGEBitmapTransparentD1Ev @ 49 NONAME
	_ZN21CSGEBitmapTransparentD2Ev @ 50 NONAME
	_ZN26CSGEBitmapItemCreatorChild10AddActionLEPS_ @ 51 NONAME
	_ZN26CSGEBitmapItemCreatorChildC1E5TSizePS_j @ 52 NONAME
	_ZN26CSGEBitmapItemCreatorChildC1EN14CBitmapRotator14TRotationAngleEPS_j @ 53 NONAME
	_ZN26CSGEBitmapItemCreatorChildC2E5TSizePS_j @ 54 NONAME
	_ZN26CSGEBitmapItemCreatorChildC2EN14CBitmapRotator14TRotationAngleEPS_j @ 55 NONAME
	_ZN26CSGEBitmapItemCreatorChildD0Ev @ 56 NONAME
	_ZN26CSGEBitmapItemCreatorChildD1Ev @ 57 NONAME
	_ZN26CSGEBitmapItemCreatorChildD2Ev @ 58 NONAME
	_ZNK14CSGEBitmapItem10BitmapMaskEv @ 59 NONAME
	_ZNK14CSGEBitmapItem10DuplicateLEj @ 60 NONAME
	_ZNK14CSGEBitmapItem10DuplicateLEv @ 61 NONAME
	_ZNK14CSGEBitmapItem2IdEv @ 62 NONAME
	_ZNK14CSGEBitmapItem6BitmapEv @ 63 NONAME
	_ZNK18CSGEBitmapProvider12ExternalizeLER12RWriteStream @ 64 NONAME
	_ZNK18CSGEBitmapProvider16CurrentBitmapSetEv @ 65 NONAME
	_ZNK21CSGEBitmapTransparent12BitmapMaskGcEv @ 66 NONAME
	_ZNK21CSGEBitmapTransparent8BitmapGcEv @ 67 NONAME
	_ZN14SGEBitmapUtils15CombineBitmapsLER10CFbsBitmapS1_ @ 68 NONAME
	_ZN14CSGEBitmapItem17CreateBitmapMaskLE12TDisplayMode @ 69 NONAME

