EXPORTS
	??1CSGEFont@@UAE@XZ @ 1 NONAME ; CSGEFont::~CSGEFont(void)
	??1CSGEFontGDR@@UAE@XZ @ 2 NONAME ; CSGEFontGDR::~CSGEFontGDR(void)
	??1CSGEFontGraphic@@UAE@XZ @ 3 NONAME ; CSGEFontGraphic::~CSGEFontGraphic(void)
	??1CSGEFontProvider@@UAE@XZ @ 4 NONAME ; CSGEFontProvider::~CSGEFontProvider(void)
	??1CSGEFontSystem@@UAE@XZ @ 5 NONAME ; CSGEFontSystem::~CSGEFontSystem(void)
	?AddCharacterMap@CSGEFontGraphic@@QAEXVTChar@@0@Z @ 6 NONAME ; void CSGEFontGraphic::AddCharacterMap(class TChar, class TChar)
	?AddFontL@CSGEFontProvider@@QAEXPAVCSGEFont@@II@Z @ 7 NONAME ; void CSGEFontProvider::AddFontL(class CSGEFont *, unsigned int, unsigned int)
	?AddFontLD@CSGEFontProvider@@QAEXPAVCSGEFont@@II@Z @ 8 NONAME ; void CSGEFontProvider::AddFontLD(class CSGEFont *, unsigned int, unsigned int)
	?DrawText@CSGEFont@@UAEXAAVCBitmapContext@@VTPoint@@ABVTDesC16@@VTRect@@@Z @ 9 NONAME ; void CSGEFont::DrawText(class CBitmapContext &, class TPoint, class TDesC16 const &, class TRect)
	?DrawText@CSGEFont@@UAEXAAVCBitmapContext@@VTRect@@ABVTDesC16@@1W4TSGEFontAlignHorizontal@@W4TSGEFontAlignVertical@@@Z @ 10 NONAME ; void CSGEFont::DrawText(class CBitmapContext &, class TRect, class TDesC16 const &, class TRect, enum TSGEFontAlignHorizontal, enum TSGEFontAlignVertical)
	?DrawText@CSGEFontGraphic@@UAEXAAVCBitmapContext@@VTPoint@@ABVTDesC16@@VTRect@@@Z @ 11 NONAME ; void CSGEFontGraphic::DrawText(class CBitmapContext &, class TPoint, class TDesC16 const &, class TRect)
	?DrawText@CSGEFontGraphic@@UAEXAAVCBitmapContext@@VTRect@@ABVTDesC16@@1W4TSGEFontAlignHorizontal@@W4TSGEFontAlignVertical@@@Z @ 12 NONAME ; void CSGEFontGraphic::DrawText(class CBitmapContext &, class TRect, class TDesC16 const &, class TRect, enum TSGEFontAlignHorizontal, enum TSGEFontAlignVertical)
	?DuplicateL@CSGEFontGraphic@@QAEPAV1@AAVCSGEBitmapItem@@@Z @ 13 NONAME ; class CSGEFontGraphic * CSGEFontGraphic::DuplicateL(class CSGEBitmapItem &)
	?DuplicateL@CSGEFontGraphic@@QAEPAV1@XZ @ 14 NONAME ; class CSGEFontGraphic * CSGEFontGraphic::DuplicateL(void)
	?Font@CSGEFontGDR@@QBEPBVCFont@@XZ @ 15 NONAME ; class CFont const * CSGEFontGDR::Font(void) const
	?Font@CSGEFontSystem@@QBEPBVCFont@@XZ @ 16 NONAME ; class CFont const * CSGEFontSystem::Font(void) const
	?GetFont@CSGEFontFamily@@QBEPAVCSGEFont@@I@Z @ 17 NONAME ; class CSGEFont * CSGEFontFamily::GetFont(unsigned int) const
	?GetFont@CSGEFontProvider@@QBEPAVCSGEFont@@II@Z @ 18 NONAME ; class CSGEFont * CSGEFontProvider::GetFont(unsigned int, unsigned int) const
	?GetFontFamily@CSGEFontProvider@@QBEPAVCSGEFontFamily@@I@Z @ 19 NONAME ; class CSGEFontFamily * CSGEFontProvider::GetFontFamily(unsigned int) const
	?LetterMargins@CSGEFontGraphic@@QAEPAVTSGEFontGraphicLetterMargins@@VTChar@@@Z @ 20 NONAME ; class TSGEFontGraphicLetterMargins * CSGEFontGraphic::LetterMargins(class TChar)
	?NewL@CSGEFontGDR@@SAPAV1@AAVCSGEFile@@ABVTDesC16@@1@Z @ 21 NONAME ; class CSGEFontGDR * CSGEFontGDR::NewL(class CSGEFile &, class TDesC16 const &, class TDesC16 const &)
	?NewL@CSGEFontGDR@@SAPAV1@ABVTDesC16@@0@Z @ 22 NONAME ; class CSGEFontGDR * CSGEFontGDR::NewL(class TDesC16 const &, class TDesC16 const &)
	?NewL@CSGEFontGraphic@@SAPAV1@AAVCSGEBitmapItem@@VTSize@@VTChar@@H@Z @ 23 NONAME ; class CSGEFontGraphic * CSGEFontGraphic::NewL(class CSGEBitmapItem &, class TSize, class TChar, int)
	?NewL@CSGEFontGraphic@@SAPAV1@AAVCSGEFile@@ABVTDesC16@@VTSize@@VTChar@@H@Z @ 24 NONAME ; class CSGEFontGraphic * CSGEFontGraphic::NewL(class CSGEFile &, class TDesC16 const &, class TSize, class TChar, int)
	?NewL@CSGEFontGraphic@@SAPAV1@ABVTDesC16@@VTSize@@VTChar@@H@Z @ 25 NONAME ; class CSGEFontGraphic * CSGEFontGraphic::NewL(class TDesC16 const &, class TSize, class TChar, int)
	?NewL@CSGEFontProvider@@SAPAV1@XZ @ 26 NONAME ; class CSGEFontProvider * CSGEFontProvider::NewL(void)
	?NewL@CSGEFontSystem@@SAPAV1@ABVTDesC16@@HHH@Z @ 27 NONAME ; class CSGEFontSystem * CSGEFontSystem::NewL(class TDesC16 const &, int, int, int)
	?NewL@CSGEFontSystem@@SAPAV1@ABVTDesC16@@HVTFontStyle@@@Z @ 28 NONAME ; class CSGEFontSystem * CSGEFontSystem::NewL(class TDesC16 const &, int, class TFontStyle)
	?NewL@CSGEFontSystem@@SAPAV1@ABVTLogicalFont@@@Z @ 29 NONAME ; class CSGEFontSystem * CSGEFontSystem::NewL(class TLogicalFont const &)
	?NewL@CSGEFontSystem@@SAPAV1@W4TSGEFontSystemStandard@1@@Z @ 30 NONAME ; class CSGEFontSystem * CSGEFontSystem::NewL(enum CSGEFontSystem::TSGEFontSystemStandard)
	?NewLC@CSGEFontProvider@@SAPAV1@XZ @ 31 NONAME ; class CSGEFontProvider * CSGEFontProvider::NewLC(void)
	?RemoveFont@CSGEFontFamily@@QAEXI@Z @ 32 NONAME ; void CSGEFontFamily::RemoveFont(unsigned int)
	?RemoveFontFamily@CSGEFontProvider@@QAEXI@Z @ 33 NONAME ; void CSGEFontProvider::RemoveFontFamily(unsigned int)
	?RemoveFontFamilyAll@CSGEFontProvider@@QAEXXZ @ 34 NONAME ; void CSGEFontProvider::RemoveFontFamilyAll(void)
	?SetDivideLines@CSGEFont@@QAEXH@Z @ 35 NONAME ; void CSGEFont::SetDivideLines(int)
	?SetInvertMask@CSGEFontGraphic@@QAEXH@Z @ 36 NONAME ; void CSGEFontGraphic::SetInvertMask(int)
	?SetLettersHorizontalStep@CSGEFont@@QAEXH@Z @ 37 NONAME ; void CSGEFont::SetLettersHorizontalStep(int)
	?SetLettersVerticalStep@CSGEFont@@QAEXH@Z @ 38 NONAME ; void CSGEFont::SetLettersVerticalStep(int)
	?SetUseLettersAnalyzer@CSGEFontGraphic@@QAEXH@Z @ 39 NONAME ; void CSGEFontGraphic::SetUseLettersAnalyzer(int)
	?TransformCurves@CSGEFontGraphic@@QAEXP6AXAAE00@Z@Z @ 40 NONAME ; void CSGEFontGraphic::TransformCurves(void (*)(unsigned char &, unsigned char &, unsigned char &))
	?BaseConstructL@CSGEFont@@IAEXXZ @ 41 NONAME ; void CSGEFont::BaseConstructL(void)
	??0CSGEFont@@IAE@XZ @ 42 NONAME ; CSGEFont::CSGEFont(void)

